target datalayout = "e-m:e-p270:32:32-p271:32:32-p272:64:64-i64:64-i128:128-f80:128-n8:16:32:64-S128"
target triple = "x86_64-pc-linux-gnu"

%"class.LIEF::MachO::BuildVersion" = type { %"class.LIEF::MachO::LoadCommand", i32, %"struct.std::array", %"struct.std::array", %"class.std::vector.0" }
%"class.LIEF::MachO::LoadCommand" = type { %"class.LIEF::Object", %"class.std::vector", i64, i32, i64 }
%"class.LIEF::Object" = type { ptr }
%"class.std::vector" = type { %"struct.std::_Vector_base" }
%"struct.std::_Vector_base" = type { %"struct.std::_Vector_base<unsigned char, std::allocator<unsigned char>>::_Vector_impl" }
%"struct.std::_Vector_base<unsigned char, std::allocator<unsigned char>>::_Vector_impl" = type { %"struct.std::_Vector_base<unsigned char, std::allocator<unsigned char>>::_Vector_impl_data" }
%"struct.std::_Vector_base<unsigned char, std::allocator<unsigned char>>::_Vector_impl_data" = type { ptr, ptr, ptr }
%"struct.std::array" = type { [3 x i32] }
%"class.std::vector.0" = type { %"struct.std::_Vector_base.1" }
%"struct.std::_Vector_base.1" = type { %"struct.std::_Vector_base<LIEF::MachO::BuildToolVersion, std::allocator<LIEF::MachO::BuildToolVersion>>::_Vector_impl" }
%"struct.std::_Vector_base<LIEF::MachO::BuildToolVersion, std::allocator<LIEF::MachO::BuildToolVersion>>::_Vector_impl" = type { %"struct.std::_Vector_base<LIEF::MachO::BuildToolVersion, std::allocator<LIEF::MachO::BuildToolVersion>>::_Vector_impl_data" }
%"struct.std::_Vector_base<LIEF::MachO::BuildToolVersion, std::allocator<LIEF::MachO::BuildToolVersion>>::_Vector_impl_data" = type { ptr, ptr, ptr }

; Function Attrs: mustprogress nounwind uwtable
define { i64, i32 } @_ZNK4LIEF5MachO12BuildVersion3sdkEv(ptr noundef nonnull align 8 dereferenceable(112) %0) #2 align 2 {
  %2 = alloca %"struct.std::array", align 4
  %3 = alloca ptr, align 8
  %4 = alloca { i64, i32 }, align 8
  store ptr %0, ptr %3, align 8
  %5 = load ptr, ptr %3, align 8
  %6 = getelementptr inbounds %"class.LIEF::MachO::BuildVersion", ptr %5, i32 0, i32 3
  call void @llvm.memcpy.p0.p0.i64(ptr align 4 %2, ptr align 8 %6, i64 12, i1 false)
  %7 = getelementptr inbounds %"struct.std::array", ptr %2, i32 0, i32 0
  call void @llvm.memcpy.p0.p0.i64(ptr align 8 %4, ptr align 4 %7, i64 12, i1 false)
  %8 = load { i64, i32 }, ptr %4, align 8
  ret { i64, i32 } %8
}